; ModuleID = '46/569.c'
source_filename = "46/569.c"
target datalayout = "e-m:e-p270:32:32-p271:32:32-p272:64:64-i64:64-f80:128-n8:16:32:64-S128"
target triple = "x86_64-pc-linux-gnu"

@.str = private unnamed_addr constant [6 x i8] c"%d %d\00", align 1
@.str.1 = private unnamed_addr constant [3 x i8] c"%d\00", align 1
@.str.2 = private unnamed_addr constant [4 x i8] c"%d\0A\00", align 1

; Function Attrs: noinline nounwind uwtable
define dso_local i32 @main() #0 {
  %1 = alloca i32, align 4
  %2 = alloca i32, align 4
  %3 = alloca i32, align 4
  %4 = alloca i32, align 4
  %5 = alloca i32, align 4
  %6 = alloca i32, align 4
  %7 = alloca [100 x [100 x i32]], align 16
  store i32 0, i32* %1, align 4
  %8 = call i32 (i8*, ...) @__isoc99_scanf(i8* getelementptr inbounds ([6 x i8], [6 x i8]* @.str, i64 0, i64 0), i32* %2, i32* %3)
  store i32 0, i32* %4, align 4
  br label %9

9:                                                ; preds = %30, %0
  %10 = load i32, i32* %4, align 4
  %11 = load i32, i32* %2, align 4
  %12 = icmp slt i32 %10, %11
  br i1 %12, label %13, label %33

13:                                               ; preds = %9
  store i32 0, i32* %5, align 4
  br label %14

14:                                               ; preds = %26, %13
  %15 = load i32, i32* %5, align 4
  %16 = load i32, i32* %3, align 4
  %17 = icmp slt i32 %15, %16
  br i1 %17, label %18, label %29

18:                                               ; preds = %14
  %19 = load i32, i32* %4, align 4
  %20 = sext i32 %19 to i64
  %21 = getelementptr inbounds [100 x [100 x i32]], [100 x [100 x i32]]* %7, i64 0, i64 %20
  %22 = load i32, i32* %5, align 4
  %23 = sext i32 %22 to i64
  %24 = getelementptr inbounds [100 x i32], [100 x i32]* %21, i64 0, i64 %23
  %25 = call i32 (i8*, ...) @__isoc99_scanf(i8* getelementptr inbounds ([3 x i8], [3 x i8]* @.str.1, i64 0, i64 0), i32* %24)
  br label %26

26:                                               ; preds = %18
  %27 = load i32, i32* %5, align 4
  %28 = add nsw i32 %27, 1
  store i32 %28, i32* %5, align 4
  br label %14

29:                                               ; preds = %14
  br label %30

30:                                               ; preds = %29
  %31 = load i32, i32* %4, align 4
  %32 = add nsw i32 %31, 1
  store i32 %32, i32* %4, align 4
  br label %9

33:                                               ; preds = %9
  store i32 0, i32* %6, align 4
  br label %34

34:                                               ; preds = %211, %33
  %35 = load i32, i32* %6, align 4
  %36 = sitofp i32 %35 to double
  %37 = load i32, i32* %2, align 4
  %38 = sitofp i32 %37 to double
  %39 = fmul double %38, 1.000000e+00
  %40 = fdiv double %39, 2.000000e+00
  %41 = fcmp olt double %36, %40
  br i1 %41, label %42, label %50

42:                                               ; preds = %34
  %43 = load i32, i32* %6, align 4
  %44 = sitofp i32 %43 to double
  %45 = load i32, i32* %3, align 4
  %46 = sitofp i32 %45 to double
  %47 = fmul double %46, 1.000000e+00
  %48 = fdiv double %47, 2.000000e+00
  %49 = fcmp olt double %44, %48
  br label %50

50:                                               ; preds = %42, %34
  %51 = phi i1 [ false, %34 ], [ %49, %42 ]
  br i1 %51, label %52, label %214

52:                                               ; preds = %50
  %53 = load i32, i32* %3, align 4
  %54 = load i32, i32* %2, align 4
  %55 = icmp sle i32 %53, %54
  br i1 %55, label %56, label %84

56:                                               ; preds = %52
  %57 = load i32, i32* %6, align 4
  %58 = mul nsw i32 %57, 2
  %59 = load i32, i32* %3, align 4
  %60 = sub nsw i32 %59, 1
  %61 = icmp eq i32 %58, %60
  br i1 %61, label %62, label %84

62:                                               ; preds = %56
  %63 = load i32, i32* %6, align 4
  store i32 %63, i32* %4, align 4
  br label %64

64:                                               ; preds = %80, %62
  %65 = load i32, i32* %4, align 4
  %66 = load i32, i32* %2, align 4
  %67 = load i32, i32* %6, align 4
  %68 = sub nsw i32 %66, %67
  %69 = sub nsw i32 %68, 1
  %70 = icmp sle i32 %65, %69
  br i1 %70, label %71, label %83

71:                                               ; preds = %64
  %72 = load i32, i32* %4, align 4
  %73 = sext i32 %72 to i64
  %74 = getelementptr inbounds [100 x [100 x i32]], [100 x [100 x i32]]* %7, i64 0, i64 %73
  %75 = load i32, i32* %6, align 4
  %76 = sext i32 %75 to i64
  %77 = getelementptr inbounds [100 x i32], [100 x i32]* %74, i64 0, i64 %76
  %78 = load i32, i32* %77, align 4
  %79 = call i32 (i8*, ...) @printf(i8* getelementptr inbounds ([4 x i8], [4 x i8]* @.str.2, i64 0, i64 0), i32 %78)
  br label %80

80:                                               ; preds = %71
  %81 = load i32, i32* %4, align 4
  %82 = add nsw i32 %81, 1
  store i32 %82, i32* %4, align 4
  br label %64

83:                                               ; preds = %64
  br label %210

84:                                               ; preds = %56, %52
  %85 = load i32, i32* %2, align 4
  %86 = load i32, i32* %3, align 4
  %87 = icmp slt i32 %85, %86
  br i1 %87, label %88, label %116

88:                                               ; preds = %84
  %89 = load i32, i32* %6, align 4
  %90 = mul nsw i32 %89, 2
  %91 = load i32, i32* %2, align 4
  %92 = sub nsw i32 %91, 1
  %93 = icmp eq i32 %90, %92
  br i1 %93, label %94, label %116

94:                                               ; preds = %88
  %95 = load i32, i32* %6, align 4
  store i32 %95, i32* %5, align 4
  br label %96

96:                                               ; preds = %112, %94
  %97 = load i32, i32* %5, align 4
  %98 = load i32, i32* %3, align 4
  %99 = load i32, i32* %6, align 4
  %100 = sub nsw i32 %98, %99
  %101 = sub nsw i32 %100, 1
  %102 = icmp sle i32 %97, %101
  br i1 %102, label %103, label %115

103:                                              ; preds = %96
  %104 = load i32, i32* %6, align 4
  %105 = sext i32 %104 to i64
  %106 = getelementptr inbounds [100 x [100 x i32]], [100 x [100 x i32]]* %7, i64 0, i64 %105
  %107 = load i32, i32* %5, align 4
  %108 = sext i32 %107 to i64
  %109 = getelementptr inbounds [100 x i32], [100 x i32]* %106, i64 0, i64 %108
  %110 = load i32, i32* %109, align 4
  %111 = call i32 (i8*, ...) @printf(i8* getelementptr inbounds ([4 x i8], [4 x i8]* @.str.2, i64 0, i64 0), i32 %110)
  br label %112

112:                                              ; preds = %103
  %113 = load i32, i32* %5, align 4
  %114 = add nsw i32 %113, 1
  store i32 %114, i32* %5, align 4
  br label %96

115:                                              ; preds = %96
  br label %209

116:                                              ; preds = %88, %84
  %117 = load i32, i32* %6, align 4
  store i32 %117, i32* %5, align 4
  br label %118

118:                                              ; preds = %134, %116
  %119 = load i32, i32* %5, align 4
  %120 = load i32, i32* %3, align 4
  %121 = load i32, i32* %6, align 4
  %122 = sub nsw i32 %120, %121
  %123 = sub nsw i32 %122, 1
  %124 = icmp sle i32 %119, %123
  br i1 %124, label %125, label %137

125:                                              ; preds = %118
  %126 = load i32, i32* %6, align 4
  %127 = sext i32 %126 to i64
  %128 = getelementptr inbounds [100 x [100 x i32]], [100 x [100 x i32]]* %7, i64 0, i64 %127
  %129 = load i32, i32* %5, align 4
  %130 = sext i32 %129 to i64
  %131 = getelementptr inbounds [100 x i32], [100 x i32]* %128, i64 0, i64 %130
  %132 = load i32, i32* %131, align 4
  %133 = call i32 (i8*, ...) @printf(i8* getelementptr inbounds ([4 x i8], [4 x i8]* @.str.2, i64 0, i64 0), i32 %132)
  br label %134

134:                                              ; preds = %125
  %135 = load i32, i32* %5, align 4
  %136 = add nsw i32 %135, 1
  store i32 %136, i32* %5, align 4
  br label %118

137:                                              ; preds = %118
  %138 = load i32, i32* %6, align 4
  %139 = add nsw i32 %138, 1
  store i32 %139, i32* %4, align 4
  br label %140

140:                                              ; preds = %159, %137
  %141 = load i32, i32* %4, align 4
  %142 = load i32, i32* %2, align 4
  %143 = load i32, i32* %6, align 4
  %144 = sub nsw i32 %142, %143
  %145 = sub nsw i32 %144, 1
  %146 = icmp sle i32 %141, %145
  br i1 %146, label %147, label %162

147:                                              ; preds = %140
  %148 = load i32, i32* %4, align 4
  %149 = sext i32 %148 to i64
  %150 = getelementptr inbounds [100 x [100 x i32]], [100 x [100 x i32]]* %7, i64 0, i64 %149
  %151 = load i32, i32* %3, align 4
  %152 = load i32, i32* %6, align 4
  %153 = sub nsw i32 %151, %152
  %154 = sub nsw i32 %153, 1
  %155 = sext i32 %154 to i64
  %156 = getelementptr inbounds [100 x i32], [100 x i32]* %150, i64 0, i64 %155
  %157 = load i32, i32* %156, align 4
  %158 = call i32 (i8*, ...) @printf(i8* getelementptr inbounds ([4 x i8], [4 x i8]* @.str.2, i64 0, i64 0), i32 %157)
  br label %159

159:                                              ; preds = %147
  %160 = load i32, i32* %4, align 4
  %161 = add nsw i32 %160, 1
  store i32 %161, i32* %4, align 4
  br label %140

162:                                              ; preds = %140
  %163 = load i32, i32* %3, align 4
  %164 = load i32, i32* %6, align 4
  %165 = sub nsw i32 %163, %164
  %166 = sub nsw i32 %165, 2
  store i32 %166, i32* %5, align 4
  br label %167

167:                                              ; preds = %183, %162
  %168 = load i32, i32* %5, align 4
  %169 = load i32, i32* %6, align 4
  %170 = icmp sge i32 %168, %169
  br i1 %170, label %171, label %186

171:                                              ; preds = %167
  %172 = load i32, i32* %2, align 4
  %173 = load i32, i32* %6, align 4
  %174 = sub nsw i32 %172, %173
  %175 = sub nsw i32 %174, 1
  %176 = sext i32 %175 to i64
  %177 = getelementptr inbounds [100 x [100 x i32]], [100 x [100 x i32]]* %7, i64 0, i64 %176
  %178 = load i32, i32* %5, align 4
  %179 = sext i32 %178 to i64
  %180 = getelementptr inbounds [100 x i32], [100 x i32]* %177, i64 0, i64 %179
  %181 = load i32, i32* %180, align 4
  %182 = call i32 (i8*, ...) @printf(i8* getelementptr inbounds ([4 x i8], [4 x i8]* @.str.2, i64 0, i64 0), i32 %181)
  br label %183

183:                                              ; preds = %171
  %184 = load i32, i32* %5, align 4
  %185 = add nsw i32 %184, -1
  store i32 %185, i32* %5, align 4
  br label %167

186:                                              ; preds = %167
  %187 = load i32, i32* %2, align 4
  %188 = load i32, i32* %6, align 4
  %189 = sub nsw i32 %187, %188
  %190 = sub nsw i32 %189, 2
  store i32 %190, i32* %4, align 4
  br label %191

191:                                              ; preds = %205, %186
  %192 = load i32, i32* %4, align 4
  %193 = load i32, i32* %6, align 4
  %194 = add nsw i32 %193, 1
  %195 = icmp sge i32 %192, %194
  br i1 %195, label %196, label %208

196:                                              ; preds = %191
  %197 = load i32, i32* %4, align 4
  %198 = sext i32 %197 to i64
  %199 = getelementptr inbounds [100 x [100 x i32]], [100 x [100 x i32]]* %7, i64 0, i64 %198
  %200 = load i32, i32* %6, align 4
  %201 = sext i32 %200 to i64
  %202 = getelementptr inbounds [100 x i32], [100 x i32]* %199, i64 0, i64 %201
  %203 = load i32, i32* %202, align 4
  %204 = call i32 (i8*, ...) @printf(i8* getelementptr inbounds ([4 x i8], [4 x i8]* @.str.2, i64 0, i64 0), i32 %203)
  br label %205

205:                                              ; preds = %196
  %206 = load i32, i32* %4, align 4
  %207 = add nsw i32 %206, -1
  store i32 %207, i32* %4, align 4
  br label %191

208:                                              ; preds = %191
  br label %209

209:                                              ; preds = %208, %115
  br label %210

210:                                              ; preds = %209, %83
  br label %211

211:                                              ; preds = %210
  %212 = load i32, i32* %6, align 4
  %213 = add nsw i32 %212, 1
  store i32 %213, i32* %6, align 4
  br label %34

214:                                              ; preds = %50
  ret i32 0
}

declare dso_local i32 @__isoc99_scanf(i8*, ...) #1

declare dso_local i32 @printf(i8*, ...) #1


!llvm.module.flags = !{!0}
!llvm.ident = !{!1}

!0 = !{i32 1, !"wchar_size", i32 4}
!1 = !{!"clang version 10.0.0-4ubuntu1 "}
